target datalayout = "e-m:e-p270:32:32-p271:32:32-p272:64:64-i64:64-i128:128-f80:128-n8:16:32:64-S128"
target triple = "x86_64-unknown-linux-gnu"

%union.anon = type { ptr }

; Function Attrs: nounwind uwtable
define internal i64 @hash_fmix_64(i64 noundef %k) #0 {
entry:
  %k.addr = alloca i64, align 8
  store i64 %k, ptr %k.addr, align 8
  %0 = load i64, ptr %k.addr, align 8
  %shr = lshr i64 %0, 33
  %1 = load i64, ptr %k.addr, align 8
  %xor = xor i64 %1, %shr
  store i64 %xor, ptr %k.addr, align 8
  %2 = load i64, ptr %k.addr, align 8
  %mul = mul i64 %2, -49064778989728563
  store i64 %mul, ptr %k.addr, align 8
  %3 = load i64, ptr %k.addr, align 8
  %shr1 = lshr i64 %3, 33
  %4 = load i64, ptr %k.addr, align 8
  %xor2 = xor i64 %4, %shr1
  store i64 %xor2, ptr %k.addr, align 8
  %5 = load i64, ptr %k.addr, align 8
  %mul3 = mul i64 %5, -4265267296055464877
  store i64 %mul3, ptr %k.addr, align 8
  %6 = load i64, ptr %k.addr, align 8
  %shr4 = lshr i64 %6, 33
  %7 = load i64, ptr %k.addr, align 8
  %xor5 = xor i64 %7, %shr4
  store i64 %xor5, ptr %k.addr, align 8
  %8 = load i64, ptr %k.addr, align 8
  ret i64 %8
}

; Function Attrs: nounwind uwtable
define internal i64 @hash_rotl_64(i64 noundef %x, i8 noundef signext %r) #0 {
entry:
  %x.addr = alloca i64, align 8
  %r.addr = alloca i8, align 1
  store i64 %x, ptr %x.addr, align 8
  store i8 %r, ptr %r.addr, align 1
  %0 = load i64, ptr %x.addr, align 8
  %1 = load i8, ptr %r.addr, align 1
  %conv = sext i8 %1 to i32
  %sh_prom = zext i32 %conv to i64
  %shl = shl i64 %0, %sh_prom
  %2 = load i64, ptr %x.addr, align 8
  %3 = load i8, ptr %r.addr, align 1
  %conv1 = sext i8 %3 to i32
  %sub = sub nsw i32 64, %conv1
  %sh_prom2 = zext i32 %sub to i64
  %shr = lshr i64 %2, %sh_prom2
  %or = or i64 %shl, %shr
  ret i64 %or
}

; Function Attrs: nounwind uwtable
define internal i64 @hash_get_block_64(ptr noundef %p, i32 noundef %i) #0 {
entry:
  %retval = alloca i64, align 8
  %p.addr = alloca ptr, align 8
  %i.addr = alloca i32, align 4
  %ret = alloca i64, align 8
  store ptr %p, ptr %p.addr, align 8
  store i32 %i, ptr %i.addr, align 4
  %0 = load ptr, ptr %p.addr, align 8
  %1 = ptrtoint ptr %0 to i64
  %and = and i64 %1, 7
  %tobool = icmp ne i64 %and, 0
  %lnot = xor i1 %tobool, true
  %lnot1 = xor i1 %lnot, true
  %lnot.ext = zext i1 %lnot1 to i32
  %conv = sext i32 %lnot.ext to i64
  %cmp = icmp ne i64 %conv, 0
  br i1 %cmp, label %if.then, label %if.end

if.then:                                          ; preds = %entry
  %2 = load ptr, ptr %p.addr, align 8
  %3 = load i32, ptr %i.addr, align 4
  %idx.ext = sext i32 %3 to i64
  %add.ptr = getelementptr inbounds i64, ptr %2, i64 %idx.ext
  call void @llvm.memcpy.p0.p0.i64(ptr align 8 %ret, ptr align 1 %add.ptr, i64 8, i1 false)
  %4 = load i64, ptr %ret, align 8
  store i64 %4, ptr %retval, align 8
  br label %return

if.end:                                           ; preds = %entry
  %5 = load ptr, ptr %p.addr, align 8
  %6 = load i32, ptr %i.addr, align 4
  %idxprom = sext i32 %6 to i64
  %arrayidx = getelementptr inbounds i64, ptr %5, i64 %idxprom
  %7 = load i64, ptr %arrayidx, align 8
  store i64 %7, ptr %retval, align 8
  br label %return

return:                                           ; preds = %if.end, %if.then
  %8 = load i64, ptr %retval, align 8
  ret i64 %8
}

; Function Attrs: nounwind uwtable
define internal void @hash_x64_128(ptr noundef %key, i32 noundef %len, i32 noundef %seed, ptr noundef %r_out) #0 {
entry:
  %key.addr = alloca ptr, align 8
  %len.addr = alloca i32, align 4
  %seed.addr = alloca i32, align 4
  %r_out.addr = alloca ptr, align 8
  %data = alloca ptr, align 8
  %nblocks = alloca i32, align 4
  %h1 = alloca i64, align 8
  %h2 = alloca i64, align 8
  %c1 = alloca i64, align 8
  %c2 = alloca i64, align 8
  %blocks = alloca ptr, align 8
  %i = alloca i32, align 4
  %k1 = alloca i64, align 8
  %k2 = alloca i64, align 8
  %tail = alloca ptr, align 8
  %k122 = alloca i64, align 8
  %k223 = alloca i64, align 8
  store ptr %key, ptr %key.addr, align 8
  store i32 %len, ptr %len.addr, align 4
  store i32 %seed, ptr %seed.addr, align 4
  store ptr %r_out, ptr %r_out.addr, align 8
  %0 = load ptr, ptr %key.addr, align 8
  store ptr %0, ptr %data, align 8
  %1 = load i32, ptr %len.addr, align 4
  %div = sdiv i32 %1, 16
  store i32 %div, ptr %nblocks, align 4
  %2 = load i32, ptr %seed.addr, align 4
  %conv = zext i32 %2 to i64
  store i64 %conv, ptr %h1, align 8
  %3 = load i32, ptr %seed.addr, align 4
  %conv1 = zext i32 %3 to i64
  store i64 %conv1, ptr %h2, align 8
  store i64 -8663945395140668459, ptr %c1, align 8
  store i64 5545529020109919103, ptr %c2, align 8
  %4 = load ptr, ptr %data, align 8
  store ptr %4, ptr %blocks, align 8
  store i32 0, ptr %i, align 4
  br label %for.cond

for.cond:                                         ; preds = %for.inc, %entry
  %5 = load i32, ptr %i, align 4
  %6 = load i32, ptr %nblocks, align 4
  %cmp = icmp slt i32 %5, %6
  br i1 %cmp, label %for.body, label %for.end

for.body:                                         ; preds = %for.cond
  %7 = load ptr, ptr %blocks, align 8
  %8 = load i32, ptr %i, align 4
  %mul = mul nsw i32 %8, 2
  %add = add nsw i32 %mul, 0
  %call = call i64 @hash_get_block_64(ptr noundef %7, i32 noundef %add)
  store i64 %call, ptr %k1, align 8
  %9 = load ptr, ptr %blocks, align 8
  %10 = load i32, ptr %i, align 4
  %mul3 = mul nsw i32 %10, 2
  %add4 = add nsw i32 %mul3, 1
  %call5 = call i64 @hash_get_block_64(ptr noundef %9, i32 noundef %add4)
  store i64 %call5, ptr %k2, align 8
  %11 = load i64, ptr %k1, align 8
  %mul6 = mul i64 %11, -8663945395140668459
  store i64 %mul6, ptr %k1, align 8
  %12 = load i64, ptr %k1, align 8
  %call7 = call i64 @hash_rotl_64(i64 noundef %12, i8 noundef signext 31)
  store i64 %call7, ptr %k1, align 8
  %13 = load i64, ptr %k1, align 8
  %mul8 = mul i64 %13, 5545529020109919103
  store i64 %mul8, ptr %k1, align 8
  %14 = load i64, ptr %k1, align 8
  %15 = load i64, ptr %h1, align 8
  %xor = xor i64 %15, %14
  store i64 %xor, ptr %h1, align 8
  %16 = load i64, ptr %h1, align 8
  %call9 = call i64 @hash_rotl_64(i64 noundef %16, i8 noundef signext 27)
  store i64 %call9, ptr %h1, align 8
  %17 = load i64, ptr %h2, align 8
  %18 = load i64, ptr %h1, align 8
  %add10 = add i64 %18, %17
  store i64 %add10, ptr %h1, align 8
  %19 = load i64, ptr %h1, align 8
  %mul11 = mul i64 %19, 5
  %add12 = add i64 %mul11, 1390208809
  store i64 %add12, ptr %h1, align 8
  %20 = load i64, ptr %k2, align 8
  %mul13 = mul i64 %20, 5545529020109919103
  store i64 %mul13, ptr %k2, align 8
  %21 = load i64, ptr %k2, align 8
  %call14 = call i64 @hash_rotl_64(i64 noundef %21, i8 noundef signext 33)
  store i64 %call14, ptr %k2, align 8
  %22 = load i64, ptr %k2, align 8
  %mul15 = mul i64 %22, -8663945395140668459
  store i64 %mul15, ptr %k2, align 8
  %23 = load i64, ptr %k2, align 8
  %24 = load i64, ptr %h2, align 8
  %xor16 = xor i64 %24, %23
  store i64 %xor16, ptr %h2, align 8
  %25 = load i64, ptr %h2, align 8
  %call17 = call i64 @hash_rotl_64(i64 noundef %25, i8 noundef signext 31)
  store i64 %call17, ptr %h2, align 8
  %26 = load i64, ptr %h1, align 8
  %27 = load i64, ptr %h2, align 8
  %add18 = add i64 %27, %26
  store i64 %add18, ptr %h2, align 8
  %28 = load i64, ptr %h2, align 8
  %mul19 = mul i64 %28, 5
  %add20 = add i64 %mul19, 944331445
  store i64 %add20, ptr %h2, align 8
  br label %for.inc

for.inc:                                          ; preds = %for.body
  %29 = load i32, ptr %i, align 4
  %inc = add nsw i32 %29, 1
  store i32 %inc, ptr %i, align 4
  br label %for.cond, !llvm.loop !25

for.end:                                          ; preds = %for.cond
  %30 = load ptr, ptr %data, align 8
  %31 = load i32, ptr %nblocks, align 4
  %mul21 = mul nsw i32 %31, 16
  %idx.ext = sext i32 %mul21 to i64
  %add.ptr = getelementptr inbounds i8, ptr %30, i64 %idx.ext
  store ptr %add.ptr, ptr %tail, align 8
  store i64 0, ptr %k122, align 8
  store i64 0, ptr %k223, align 8
  %32 = load i32, ptr %len.addr, align 4
  %and = and i32 %32, 15
  switch i32 %and, label %sw.epilog [
    i32 15, label %sw.bb
    i32 14, label %sw.bb26
    i32 13, label %sw.bb31
    i32 12, label %sw.bb36
    i32 11, label %sw.bb41
    i32 10, label %sw.bb46
    i32 9, label %sw.bb51
    i32 8, label %sw.bb60
    i32 7, label %sw.bb65
    i32 6, label %sw.bb70
    i32 5, label %sw.bb75
    i32 4, label %sw.bb80
    i32 3, label %sw.bb85
    i32 2, label %sw.bb90
    i32 1, label %sw.bb95
  ]

sw.bb:                                            ; preds = %for.end
  %33 = load ptr, ptr %tail, align 8
  %arrayidx = getelementptr inbounds i8, ptr %33, i64 14
  %34 = load i8, ptr %arrayidx, align 1
  %conv24 = zext i8 %34 to i64
  %shl = shl i64 %conv24, 48
  %35 = load i64, ptr %k223, align 8
  %xor25 = xor i64 %35, %shl
  store i64 %xor25, ptr %k223, align 8
  br label %sw.bb26

sw.bb26:                                          ; preds = %sw.bb, %for.end
  %36 = load ptr, ptr %tail, align 8
  %arrayidx27 = getelementptr inbounds i8, ptr %36, i64 13
  %37 = load i8, ptr %arrayidx27, align 1
  %conv28 = zext i8 %37 to i64
  %shl29 = shl i64 %conv28, 40
  %38 = load i64, ptr %k223, align 8
  %xor30 = xor i64 %38, %shl29
  store i64 %xor30, ptr %k223, align 8
  br label %sw.bb31

sw.bb31:                                          ; preds = %sw.bb26, %for.end
  %39 = load ptr, ptr %tail, align 8
  %arrayidx32 = getelementptr inbounds i8, ptr %39, i64 12
  %40 = load i8, ptr %arrayidx32, align 1
  %conv33 = zext i8 %40 to i64
  %shl34 = shl i64 %conv33, 32
  %41 = load i64, ptr %k223, align 8
  %xor35 = xor i64 %41, %shl34
  store i64 %xor35, ptr %k223, align 8
  br label %sw.bb36

sw.bb36:                                          ; preds = %sw.bb31, %for.end
  %42 = load ptr, ptr %tail, align 8
  %arrayidx37 = getelementptr inbounds i8, ptr %42, i64 11
  %43 = load i8, ptr %arrayidx37, align 1
  %conv38 = zext i8 %43 to i64
  %shl39 = shl i64 %conv38, 24
  %44 = load i64, ptr %k223, align 8
  %xor40 = xor i64 %44, %shl39
  store i64 %xor40, ptr %k223, align 8
  br label %sw.bb41

sw.bb41:                                          ; preds = %sw.bb36, %for.end
  %45 = load ptr, ptr %tail, align 8
  %arrayidx42 = getelementptr inbounds i8, ptr %45, i64 10
  %46 = load i8, ptr %arrayidx42, align 1
  %conv43 = zext i8 %46 to i64
  %shl44 = shl i64 %conv43, 16
  %47 = load i64, ptr %k223, align 8
  %xor45 = xor i64 %47, %shl44
  store i64 %xor45, ptr %k223, align 8
  br label %sw.bb46

sw.bb46:                                          ; preds = %sw.bb41, %for.end
  %48 = load ptr, ptr %tail, align 8
  %arrayidx47 = getelementptr inbounds i8, ptr %48, i64 9
  %49 = load i8, ptr %arrayidx47, align 1
  %conv48 = zext i8 %49 to i64
  %shl49 = shl i64 %conv48, 8
  %50 = load i64, ptr %k223, align 8
  %xor50 = xor i64 %50, %shl49
  store i64 %xor50, ptr %k223, align 8
  br label %sw.bb51

sw.bb51:                                          ; preds = %sw.bb46, %for.end
  %51 = load ptr, ptr %tail, align 8
  %arrayidx52 = getelementptr inbounds i8, ptr %51, i64 8
  %52 = load i8, ptr %arrayidx52, align 1
  %conv53 = zext i8 %52 to i64
  %shl54 = shl i64 %conv53, 0
  %53 = load i64, ptr %k223, align 8
  %xor55 = xor i64 %53, %shl54
  store i64 %xor55, ptr %k223, align 8
  %54 = load i64, ptr %k223, align 8
  %mul56 = mul i64 %54, 5545529020109919103
  store i64 %mul56, ptr %k223, align 8
  %55 = load i64, ptr %k223, align 8
  %call57 = call i64 @hash_rotl_64(i64 noundef %55, i8 noundef signext 33)
  store i64 %call57, ptr %k223, align 8
  %56 = load i64, ptr %k223, align 8
  %mul58 = mul i64 %56, -8663945395140668459
  store i64 %mul58, ptr %k223, align 8
  %57 = load i64, ptr %k223, align 8
  %58 = load i64, ptr %h2, align 8
  %xor59 = xor i64 %58, %57
  store i64 %xor59, ptr %h2, align 8
  br label %sw.bb60

sw.bb60:                                          ; preds = %sw.bb51, %for.end
  %59 = load ptr, ptr %tail, align 8
  %arrayidx61 = getelementptr inbounds i8, ptr %59, i64 7
  %60 = load i8, ptr %arrayidx61, align 1
  %conv62 = zext i8 %60 to i64
  %shl63 = shl i64 %conv62, 56
  %61 = load i64, ptr %k122, align 8
  %xor64 = xor i64 %61, %shl63
  store i64 %xor64, ptr %k122, align 8
  br label %sw.bb65

sw.bb65:                                          ; preds = %sw.bb60, %for.end
  %62 = load ptr, ptr %tail, align 8
  %arrayidx66 = getelementptr inbounds i8, ptr %62, i64 6
  %63 = load i8, ptr %arrayidx66, align 1
  %conv67 = zext i8 %63 to i64
  %shl68 = shl i64 %conv67, 48
  %64 = load i64, ptr %k122, align 8
  %xor69 = xor i64 %64, %shl68
  store i64 %xor69, ptr %k122, align 8
  br label %sw.bb70

sw.bb70:                                          ; preds = %sw.bb65, %for.end
  %65 = load ptr, ptr %tail, align 8
  %arrayidx71 = getelementptr inbounds i8, ptr %65, i64 5
  %66 = load i8, ptr %arrayidx71, align 1
  %conv72 = zext i8 %66 to i64
  %shl73 = shl i64 %conv72, 40
  %67 = load i64, ptr %k122, align 8
  %xor74 = xor i64 %67, %shl73
  store i64 %xor74, ptr %k122, align 8
  br label %sw.bb75

sw.bb75:                                          ; preds = %sw.bb70, %for.end
  %68 = load ptr, ptr %tail, align 8
  %arrayidx76 = getelementptr inbounds i8, ptr %68, i64 4
  %69 = load i8, ptr %arrayidx76, align 1
  %conv77 = zext i8 %69 to i64
  %shl78 = shl i64 %conv77, 32
  %70 = load i64, ptr %k122, align 8
  %xor79 = xor i64 %70, %shl78
  store i64 %xor79, ptr %k122, align 8
  br label %sw.bb80

sw.bb80:                                          ; preds = %sw.bb75, %for.end
  %71 = load ptr, ptr %tail, align 8
  %arrayidx81 = getelementptr inbounds i8, ptr %71, i64 3
  %72 = load i8, ptr %arrayidx81, align 1
  %conv82 = zext i8 %72 to i64
  %shl83 = shl i64 %conv82, 24
  %73 = load i64, ptr %k122, align 8
  %xor84 = xor i64 %73, %shl83
  store i64 %xor84, ptr %k122, align 8
  br label %sw.bb85

sw.bb85:                                          ; preds = %sw.bb80, %for.end
  %74 = load ptr, ptr %tail, align 8
  %arrayidx86 = getelementptr inbounds i8, ptr %74, i64 2
  %75 = load i8, ptr %arrayidx86, align 1
  %conv87 = zext i8 %75 to i64
  %shl88 = shl i64 %conv87, 16
  %76 = load i64, ptr %k122, align 8
  %xor89 = xor i64 %76, %shl88
  store i64 %xor89, ptr %k122, align 8
  br label %sw.bb90

sw.bb90:                                          ; preds = %sw.bb85, %for.end
  %77 = load ptr, ptr %tail, align 8
  %arrayidx91 = getelementptr inbounds i8, ptr %77, i64 1
  %78 = load i8, ptr %arrayidx91, align 1
  %conv92 = zext i8 %78 to i64
  %shl93 = shl i64 %conv92, 8
  %79 = load i64, ptr %k122, align 8
  %xor94 = xor i64 %79, %shl93
  store i64 %xor94, ptr %k122, align 8
  br label %sw.bb95

sw.bb95:                                          ; preds = %sw.bb90, %for.end
  %80 = load ptr, ptr %tail, align 8
  %arrayidx96 = getelementptr inbounds i8, ptr %80, i64 0
  %81 = load i8, ptr %arrayidx96, align 1
  %conv97 = zext i8 %81 to i64
  %shl98 = shl i64 %conv97, 0
  %82 = load i64, ptr %k122, align 8
  %xor99 = xor i64 %82, %shl98
  store i64 %xor99, ptr %k122, align 8
  %83 = load i64, ptr %k122, align 8
  %mul100 = mul i64 %83, -8663945395140668459
  store i64 %mul100, ptr %k122, align 8
  %84 = load i64, ptr %k122, align 8
  %call101 = call i64 @hash_rotl_64(i64 noundef %84, i8 noundef signext 31)
  store i64 %call101, ptr %k122, align 8
  %85 = load i64, ptr %k122, align 8
  %mul102 = mul i64 %85, 5545529020109919103
  store i64 %mul102, ptr %k122, align 8
  %86 = load i64, ptr %k122, align 8
  %87 = load i64, ptr %h1, align 8
  %xor103 = xor i64 %87, %86
  store i64 %xor103, ptr %h1, align 8
  br label %sw.epilog

sw.epilog:                                        ; preds = %sw.bb95, %for.end
  %88 = load i32, ptr %len.addr, align 4
  %conv104 = sext i32 %88 to i64
  %89 = load i64, ptr %h1, align 8
  %xor105 = xor i64 %89, %conv104
  store i64 %xor105, ptr %h1, align 8
  %90 = load i32, ptr %len.addr, align 4
  %conv106 = sext i32 %90 to i64
  %91 = load i64, ptr %h2, align 8
  %xor107 = xor i64 %91, %conv106
  store i64 %xor107, ptr %h2, align 8
  %92 = load i64, ptr %h2, align 8
  %93 = load i64, ptr %h1, align 8
  %add108 = add i64 %93, %92
  store i64 %add108, ptr %h1, align 8
  %94 = load i64, ptr %h1, align 8
  %95 = load i64, ptr %h2, align 8
  %add109 = add i64 %95, %94
  store i64 %add109, ptr %h2, align 8
  %96 = load i64, ptr %h1, align 8
  %call110 = call i64 @hash_fmix_64(i64 noundef %96)
  store i64 %call110, ptr %h1, align 8
  %97 = load i64, ptr %h2, align 8
  %call111 = call i64 @hash_fmix_64(i64 noundef %97)
  store i64 %call111, ptr %h2, align 8
  %98 = load i64, ptr %h2, align 8
  %99 = load i64, ptr %h1, align 8
  %add112 = add i64 %99, %98
  store i64 %add112, ptr %h1, align 8
  %100 = load i64, ptr %h1, align 8
  %101 = load i64, ptr %h2, align 8
  %add113 = add i64 %101, %100
  store i64 %add113, ptr %h2, align 8
  %102 = load i64, ptr %h1, align 8
  %103 = load ptr, ptr %r_out.addr, align 8
  %arrayidx114 = getelementptr inbounds i64, ptr %103, i64 0
  store i64 %102, ptr %arrayidx114, align 8
  %104 = load i64, ptr %h2, align 8
  %105 = load ptr, ptr %r_out.addr, align 8
  %arrayidx115 = getelementptr inbounds i64, ptr %105, i64 1
  store i64 %104, ptr %arrayidx115, align 8
  ret void
}

; Function Attrs: nounwind uwtable
define internal void @hash(ptr noundef %key, i64 noundef %len, i32 noundef %seed, ptr noundef %r_hash) #0 {
entry:
  %key.addr = alloca ptr, align 8
  %len.addr = alloca i64, align 8
  %seed.addr = alloca i32, align 4
  %r_hash.addr = alloca ptr, align 8
  store ptr %key, ptr %key.addr, align 8
  store i64 %len, ptr %len.addr, align 8
  store i32 %seed, ptr %seed.addr, align 4
  store ptr %r_hash, ptr %r_hash.addr, align 8
  br label %do.body

do.body:                                          ; preds = %entry
  br label %do.end

do.end:                                           ; preds = %do.body
  %0 = load ptr, ptr %key.addr, align 8
  %1 = load i64, ptr %len.addr, align 8
  %conv = trunc i64 %1 to i32
  %2 = load i32, ptr %seed.addr, align 4
  %3 = load ptr, ptr %r_hash.addr, align 8
  call void @hash_x64_128(ptr noundef %0, i32 noundef %conv, i32 noundef %2, ptr noundef %3)
  ret void
}

; Function Attrs: nounwind uwtable
define hidden void @ckh_pointer_hash(ptr noundef %key, ptr noundef %r_hash) #0 {
entry:
  %key.addr = alloca ptr, align 8
  %r_hash.addr = alloca ptr, align 8
  %u = alloca %union.anon, align 8
  store ptr %key, ptr %key.addr, align 8
  store ptr %r_hash, ptr %r_hash.addr, align 8
  br label %do.body

do.body:                                          ; preds = %entry
  br label %do.end

do.end:                                           ; preds = %do.body
  %0 = load ptr, ptr %key.addr, align 8
  store ptr %0, ptr %u, align 8
  %1 = load ptr, ptr %r_hash.addr, align 8
  call void @hash(ptr noundef %u, i64 noundef 8, i32 noundef -645711506, ptr noundef %1)
  ret void
}