; Function Attrs: mustprogress nofree norecurse nosync nounwind willreturn memory(argmem: write) uwtable
define hidden void @ckh_pointer_hash(ptr noundef %key, ptr nocapture noundef writeonly %r_hash) local_unnamed_addr #7 {
entry:
  %0 = ptrtoint ptr %key to i64
  %mul100.i.i = mul i64 %0, -8663945395140668459
  %shl.i92.i.i = mul i64 %0, -8601547726154366976
  %shr.i93.i.i = lshr i64 %mul100.i.i, 33
  %or.i94.i.i = or disjoint i64 %shr.i93.i.i, %shl.i92.i.i
  %mul102.i.i = mul i64 %or.i94.i.i, 5545529020109919103
  %xor105.i.i = xor i64 %mul102.i.i, 3649255782
  %add108.i.i = add i64 %xor105.i.i, 3649255782
  %add109.i.i = add i64 %xor105.i.i, 7298511564
  %shr.i95.i.i = lshr i64 %add108.i.i, 33
  %xor.i.i.i = xor i64 %shr.i95.i.i, %add108.i.i
  %mul.i.i.i = mul i64 %xor.i.i.i, -49064778989728563
  %shr1.i.i.i = lshr i64 %mul.i.i.i, 33
  %xor2.i.i.i = xor i64 %shr1.i.i.i, %mul.i.i.i
  %mul3.i.i.i = mul i64 %xor2.i.i.i, -4265267296055464877
  %shr4.i.i.i = lshr i64 %mul3.i.i.i, 33
  %xor5.i.i.i = xor i64 %shr4.i.i.i, %mul3.i.i.i
  %shr.i96.i.i = lshr i64 %add109.i.i, 33
  %xor.i97.i.i = xor i64 %shr.i96.i.i, %add109.i.i
  %mul.i98.i.i = mul i64 %xor.i97.i.i, -49064778989728563
  %shr1.i99.i.i = lshr i64 %mul.i98.i.i, 33
  %xor2.i100.i.i = xor i64 %shr1.i99.i.i, %mul.i98.i.i
  %mul3.i101.i.i = mul i64 %xor2.i100.i.i, -4265267296055464877
  %shr4.i102.i.i = lshr i64 %mul3.i101.i.i, 33
  %xor5.i103.i.i = xor i64 %shr4.i102.i.i, %mul3.i101.i.i
  %add112.i.i = add i64 %xor5.i103.i.i, %xor5.i.i.i
  %add113.i.i = add i64 %add112.i.i, %xor5.i103.i.i
  store i64 %add112.i.i, ptr %r_hash, align 8
  %arrayidx115.i.i = getelementptr inbounds i8, ptr %r_hash, i64 8
  store i64 %add113.i.i, ptr %arrayidx115.i.i, align 8
  ret void
}